; Function Attrs: inlinehint mustprogress nounwind willreturn uwtable
define internal fastcc void @Bac_NtkAddInfo(ptr noundef captures(none) %0, i32 noundef range(i32 0, -1) %1) unnamed_addr #5 {
  %3 = getelementptr inbounds nuw i8, ptr %0, i64 64
  %4 = getelementptr inbounds nuw i8, ptr %0, i64 68
  %5 = load i32, ptr %4, align 4, !tbaa !77
  %6 = load i32, ptr %3, align 8, !tbaa !75
  %7 = icmp eq i32 %5, %6
  br i1 %7, label %8, label %.Vec_IntGrow.exit10_crit_edge.i

.Vec_IntGrow.exit10_crit_edge.i:                  ; preds = %2
  %.phi.trans.insert.i = getelementptr inbounds nuw i8, ptr %0, i64 72
  %.pre.i = load ptr, ptr %.phi.trans.insert.i, align 8, !tbaa !78
  br label %Vec_IntPush.exit

8:                                                ; preds = %2
  %9 = icmp slt i32 %5, 16
  br i1 %9, label %10, label %18

10:                                               ; preds = %8
  %11 = getelementptr inbounds nuw i8, ptr %0, i64 72
  %12 = load ptr, ptr %11, align 8, !tbaa !78
  %.not9.i.i = icmp eq ptr %12, null
  br i1 %.not9.i.i, label %15, label %13

13:                                               ; preds = %10
  %14 = tail call dereferenceable_or_null(64) ptr @realloc(ptr noundef nonnull %12, i64 noundef 64) #21
  br label %Vec_IntGrow.exit.i

15:                                               ; preds = %10
  %16 = tail call noalias dereferenceable_or_null(64) ptr @malloc(i64 noundef 64) #20
  br label %Vec_IntGrow.exit.i

Vec_IntGrow.exit.i:                               ; preds = %15, %13
  %17 = phi ptr [ %14, %13 ], [ %16, %15 ]
  store ptr %17, ptr %11, align 8, !tbaa !78
  store i32 16, ptr %3, align 8, !tbaa !75
  br label %Vec_IntPush.exit

18:                                               ; preds = %8
  %19 = shl nuw nsw i32 %5, 1
  %20 = getelementptr inbounds nuw i8, ptr %0, i64 72
  %21 = load ptr, ptr %20, align 8, !tbaa !78
  %.not9.i9.i = icmp eq ptr %21, null
  %22 = zext nneg i32 %19 to i64
  %23 = shl nuw nsw i64 %22, 2
  br i1 %.not9.i9.i, label %26, label %24

24:                                               ; preds = %18
  %25 = tail call ptr @realloc(ptr noundef nonnull %21, i64 noundef %23) #21
  br label %28

26:                                               ; preds = %18
  %27 = tail call noalias ptr @malloc(i64 noundef %23) #20
  br label %28

28:                                               ; preds = %26, %24
  %29 = phi ptr [ %25, %24 ], [ %27, %26 ]
  store ptr %29, ptr %20, align 8, !tbaa !78
  store i32 %19, ptr %3, align 8, !tbaa !75
  br label %Vec_IntPush.exit

Vec_IntPush.exit:                                 ; preds = %.Vec_IntGrow.exit10_crit_edge.i, %Vec_IntGrow.exit.i, %28
  %30 = phi ptr [ %.pre.i, %.Vec_IntGrow.exit10_crit_edge.i ], [ %29, %28 ], [ %17, %Vec_IntGrow.exit.i ]
  %31 = load i32, ptr %4, align 4, !tbaa !77
  %32 = add nsw i32 %31, 1
  store i32 %32, ptr %4, align 4, !tbaa !77
  %33 = sext i32 %31 to i64
  %34 = getelementptr inbounds i32, ptr %30, i64 %33
  store i32 %1, ptr %34, align 4, !tbaa !31
  %35 = load i32, ptr %4, align 4, !tbaa !77
  %36 = load i32, ptr %3, align 8, !tbaa !75
  %37 = icmp eq i32 %35, %36
  br i1 %37, label %38, label %Vec_IntPush.exit.i

38:                                               ; preds = %Vec_IntPush.exit
  %39 = icmp slt i32 %35, 16
  br i1 %39, label %Vec_IntGrow.exit.i.i, label %42

Vec_IntGrow.exit.i.i:                             ; preds = %38
  %40 = getelementptr inbounds nuw i8, ptr %0, i64 72
  %41 = tail call dereferenceable_or_null(64) ptr @realloc(ptr noundef nonnull %30, i64 noundef 64) #21
  store ptr %41, ptr %40, align 8, !tbaa !78
  br label %Vec_IntPush.exit.i.sink.split

42:                                               ; preds = %38
  %43 = shl nuw nsw i32 %35, 1
  %44 = getelementptr inbounds nuw i8, ptr %0, i64 72
  %45 = zext nneg i32 %43 to i64
  %46 = shl nuw nsw i64 %45, 2
  %47 = tail call ptr @realloc(ptr noundef nonnull %30, i64 noundef %46) #21
  store ptr %47, ptr %44, align 8, !tbaa !78
  br label %Vec_IntPush.exit.i.sink.split

Vec_IntPush.exit.i.sink.split:                    ; preds = %Vec_IntGrow.exit.i.i, %42
  %.sink4 = phi i32 [ %43, %42 ], [ 16, %Vec_IntGrow.exit.i.i ]
  %.ph = phi ptr [ %47, %42 ], [ %41, %Vec_IntGrow.exit.i.i ]
  store i32 %.sink4, ptr %3, align 8, !tbaa !75
  br label %Vec_IntPush.exit.i

Vec_IntPush.exit.i:                               ; preds = %Vec_IntPush.exit.i.sink.split, %Vec_IntPush.exit
  %48 = phi ptr [ %30, %Vec_IntPush.exit ], [ %.ph, %Vec_IntPush.exit.i.sink.split ]
  %49 = load i32, ptr %4, align 4, !tbaa !77
  %50 = add nsw i32 %49, 1
  store i32 %50, ptr %4, align 4, !tbaa !77
  %51 = sext i32 %49 to i64
  %52 = getelementptr inbounds i32, ptr %48, i64 %51
  store i32 -1, ptr %52, align 4, !tbaa !31
  %53 = load i32, ptr %4, align 4, !tbaa !77
  %54 = load i32, ptr %3, align 8, !tbaa !75
  %55 = icmp eq i32 %53, %54
  br i1 %55, label %Vec_IntPush.exit9.sink.split.i, label %Vec_IntPushTwo.exit

Vec_IntPush.exit9.sink.split.i:                   ; preds = %Vec_IntPush.exit.i
  %56 = icmp slt i32 %53, 16
  %57 = shl nuw nsw i32 %53, 1
  %58 = zext nneg i32 %57 to i64
  %59 = shl nuw nsw i64 %58, 2
  %.sink5 = select i1 %56, i64 64, i64 %59
  %.sink.i = select i1 %56, i32 16, i32 %57
  %60 = tail call ptr @realloc(ptr noundef nonnull %48, i64 noundef %.sink5) #21
  %61 = getelementptr inbounds nuw i8, ptr %0, i64 72
  store ptr %60, ptr %61, align 8, !tbaa !78
  store i32 %.sink.i, ptr %3, align 8, !tbaa !75
  %.pre = load i32, ptr %4, align 4, !tbaa !77
  br label %Vec_IntPushTwo.exit

Vec_IntPushTwo.exit:                              ; preds = %Vec_IntPush.exit.i, %Vec_IntPush.exit9.sink.split.i
  %62 = phi i32 [ %53, %Vec_IntPush.exit.i ], [ %.pre, %Vec_IntPush.exit9.sink.split.i ]
  %63 = phi ptr [ %48, %Vec_IntPush.exit.i ], [ %60, %Vec_IntPush.exit9.sink.split.i ]
  %64 = add nsw i32 %62, 1
  store i32 %64, ptr %4, align 4, !tbaa !77
  %65 = sext i32 %62 to i64
  %66 = getelementptr inbounds i32, ptr %63, i64 %65
  store i32 -1, ptr %66, align 4, !tbaa !31
  ret void
}